target datalayout = "e-m:e-p270:32:32-p271:32:32-p272:64:64-i64:64-i128:128-f80:128-n8:16:32:64-S128"
target triple = "x86_64-pc-linux-gnu"

%"class.cv::Range" = type { i32, i32 }
%class.anon = type { ptr, ptr, ptr, ptr, ptr, ptr, ptr, ptr, ptr, ptr, ptr, ptr, ptr, ptr, ptr, ptr, ptr, ptr, ptr, ptr, ptr, ptr, ptr, ptr }

; Function Attrs: mustprogress uwtable
define internal void @"_ZZN2cv3dnn12runDepthwiseERKNS_11_InputArrayERKNS_12_OutputArrayERKNS_3PtrINS0_8FastConvEEEPNS0_14dnn4_v2024052115ActivationLayerERKSt6vectorIfSaIfEEbENK3$_0clERKNS_5RangeE"(ptr noundef nonnull align 8 dereferenceable(192) %0, ptr noundef nonnull align 4 dereferenceable(8) %1) #4 align 2 {
  %3 = alloca ptr, align 8
  %4 = alloca ptr, align 8
  %5 = alloca i32, align 4
  %6 = alloca i32, align 4
  %7 = alloca ptr, align 8
  %8 = alloca ptr, align 8
  %9 = alloca ptr, align 8
  store ptr %0, ptr %3, align 8
  store ptr %1, ptr %4, align 8
  %10 = load ptr, ptr %3, align 8
  %11 = load ptr, ptr %4, align 8
  %12 = getelementptr inbounds %"class.cv::Range", ptr %11, i32 0, i32 0
  %13 = load i32, ptr %12, align 4
  store i32 %13, ptr %5, align 4
  br label %14

14:                                               ; preds = %169, %2
  %15 = load i32, ptr %5, align 4
  %16 = load ptr, ptr %4, align 8
  %17 = getelementptr inbounds %"class.cv::Range", ptr %16, i32 0, i32 1
  %18 = load i32, ptr %17, align 4
  %19 = icmp slt i32 %15, %18
  br i1 %19, label %20, label %172

20:                                               ; preds = %14
  %21 = load i32, ptr %5, align 4
  %22 = getelementptr inbounds %class.anon, ptr %10, i32 0, i32 0
  %23 = load ptr, ptr %22, align 8
  %24 = load i32, ptr %23, align 4
  %25 = srem i32 %21, %24
  store i32 %25, ptr %6, align 4
  %26 = getelementptr inbounds %class.anon, ptr %10, i32 0, i32 1
  %27 = load ptr, ptr %26, align 8
  %28 = load ptr, ptr %27, align 8
  %29 = getelementptr inbounds %class.anon, ptr %10, i32 0, i32 2
  %30 = load ptr, ptr %29, align 8
  %31 = load i64, ptr %30, align 8
  %32 = load i32, ptr %5, align 4
  %33 = sext i32 %32 to i64
  %34 = mul i64 %31, %33
  %35 = getelementptr inbounds float, ptr %28, i64 %34
  store ptr %35, ptr %7, align 8
  %36 = getelementptr inbounds %class.anon, ptr %10, i32 0, i32 3
  %37 = load ptr, ptr %36, align 8
  %38 = load ptr, ptr %37, align 8
  %39 = getelementptr inbounds %class.anon, ptr %10, i32 0, i32 4
  %40 = load ptr, ptr %39, align 8
  %41 = load i64, ptr %40, align 8
  %42 = load i32, ptr %5, align 4
  %43 = sext i32 %42 to i64
  %44 = mul i64 %41, %43
  %45 = getelementptr inbounds float, ptr %38, i64 %44
  store ptr %45, ptr %8, align 8
  %46 = getelementptr inbounds %class.anon, ptr %10, i32 0, i32 5
  %47 = load ptr, ptr %46, align 8
  %48 = load ptr, ptr %47, align 8
  %49 = load i32, ptr %6, align 4
  %50 = getelementptr inbounds %class.anon, ptr %10, i32 0, i32 6
  %51 = load ptr, ptr %50, align 8
  %52 = load i32, ptr %51, align 4
  %53 = mul nsw i32 %49, %52
  %54 = sext i32 %53 to i64
  %55 = getelementptr inbounds float, ptr %48, i64 %54
  store ptr %55, ptr %9, align 8
  %56 = getelementptr inbounds %class.anon, ptr %10, i32 0, i32 7
  %57 = load ptr, ptr %56, align 8
  %58 = load i32, ptr %57, align 4
  %59 = icmp eq i32 %58, 1
  br i1 %59, label %60, label %111

60:                                               ; preds = %20
  %61 = load ptr, ptr %9, align 8
  %62 = getelementptr inbounds %class.anon, ptr %10, i32 0, i32 8
  %63 = load ptr, ptr %62, align 8
  %64 = load i32, ptr %63, align 4
  %65 = getelementptr inbounds %class.anon, ptr %10, i32 0, i32 9
  %66 = load ptr, ptr %65, align 8
  %67 = load i32, ptr %66, align 4
  %68 = getelementptr inbounds %class.anon, ptr %10, i32 0, i32 10
  %69 = load ptr, ptr %68, align 8
  %70 = load i32, ptr %69, align 4
  %71 = getelementptr inbounds %class.anon, ptr %10, i32 0, i32 11
  %72 = load ptr, ptr %71, align 8
  %73 = load i32, ptr %72, align 4
  %74 = getelementptr inbounds %class.anon, ptr %10, i32 0, i32 12
  %75 = load ptr, ptr %74, align 8
  %76 = load i32, ptr %75, align 4
  %77 = getelementptr inbounds %class.anon, ptr %10, i32 0, i32 13
  %78 = load ptr, ptr %77, align 8
  %79 = load i32, ptr %78, align 4
  %80 = getelementptr inbounds %class.anon, ptr %10, i32 0, i32 14
  %81 = load ptr, ptr %80, align 8
  %82 = load i32, ptr %81, align 4
  %83 = getelementptr inbounds %class.anon, ptr %10, i32 0, i32 15
  %84 = load ptr, ptr %83, align 8
  %85 = load i32, ptr %84, align 4
  %86 = getelementptr inbounds %class.anon, ptr %10, i32 0, i32 16
  %87 = load ptr, ptr %86, align 8
  %88 = load ptr, ptr %87, align 8
  %89 = getelementptr inbounds %class.anon, ptr %10, i32 0, i32 17
  %90 = load ptr, ptr %89, align 8
  %91 = load ptr, ptr %90, align 8
  %92 = load ptr, ptr %7, align 8
  %93 = getelementptr inbounds %class.anon, ptr %10, i32 0, i32 18
  %94 = load ptr, ptr %93, align 8
  %95 = load i32, ptr %94, align 4
  %96 = getelementptr inbounds %class.anon, ptr %10, i32 0, i32 19
  %97 = load ptr, ptr %96, align 8
  %98 = load i32, ptr %97, align 4
  %99 = load ptr, ptr %8, align 8
  %100 = load i32, ptr %6, align 4
  %101 = getelementptr inbounds %class.anon, ptr %10, i32 0, i32 20
  %102 = load ptr, ptr %101, align 8
  %103 = load i32, ptr %102, align 4
  %104 = getelementptr inbounds %class.anon, ptr %10, i32 0, i32 21
  %105 = load ptr, ptr %104, align 8
  %106 = load i32, ptr %105, align 4
  %107 = getelementptr inbounds %class.anon, ptr %10, i32 0, i32 22
  %108 = load ptr, ptr %107, align 8
  %109 = load i8, ptr %108, align 1
  %110 = trunc i8 %109 to i1
  call void @_ZN2cv3dnn20depthWiseBlockConv2DEPKfiiiiiiiiS2_S2_S2_iiPfiiib(ptr noundef %61, i32 noundef %64, i32 noundef %67, i32 noundef %70, i32 noundef %73, i32 noundef %76, i32 noundef %79, i32 noundef %82, i32 noundef %85, ptr noundef %88, ptr noundef %91, ptr noundef %92, i32 noundef %95, i32 noundef %98, ptr noundef %99, i32 noundef %100, i32 noundef %103, i32 noundef %106, i1 noundef zeroext %110)
  br label %144

111:                                              ; preds = %20
  %112 = load ptr, ptr %9, align 8
  %113 = getelementptr inbounds %class.anon, ptr %10, i32 0, i32 9
  %114 = load ptr, ptr %113, align 8
  %115 = load i32, ptr %114, align 4
  %116 = getelementptr inbounds %class.anon, ptr %10, i32 0, i32 11
  %117 = load ptr, ptr %116, align 8
  %118 = load i32, ptr %117, align 4
  %119 = getelementptr inbounds %class.anon, ptr %10, i32 0, i32 13
  %120 = load ptr, ptr %119, align 8
  %121 = load i32, ptr %120, align 4
  %122 = getelementptr inbounds %class.anon, ptr %10, i32 0, i32 15
  %123 = load ptr, ptr %122, align 8
  %124 = load i32, ptr %123, align 4
  %125 = getelementptr inbounds %class.anon, ptr %10, i32 0, i32 16
  %126 = load ptr, ptr %125, align 8
  %127 = load ptr, ptr %126, align 8
  %128 = getelementptr inbounds %class.anon, ptr %10, i32 0, i32 17
  %129 = load ptr, ptr %128, align 8
  %130 = load ptr, ptr %129, align 8
  %131 = load ptr, ptr %7, align 8
  %132 = getelementptr inbounds %class.anon, ptr %10, i32 0, i32 19
  %133 = load ptr, ptr %132, align 8
  %134 = load i32, ptr %133, align 4
  %135 = load ptr, ptr %8, align 8
  %136 = load i32, ptr %6, align 4
  %137 = getelementptr inbounds %class.anon, ptr %10, i32 0, i32 21
  %138 = load ptr, ptr %137, align 8
  %139 = load i32, ptr %138, align 4
  %140 = getelementptr inbounds %class.anon, ptr %10, i32 0, i32 22
  %141 = load ptr, ptr %140, align 8
  %142 = load i8, ptr %141, align 1
  %143 = trunc i8 %142 to i1
  call void @_ZN2cv3dnn20depthWiseBlockConv1DEPKfiiiiS2_S2_S2_iPfiib(ptr noundef %112, i32 noundef %115, i32 noundef %118, i32 noundef %121, i32 noundef %124, ptr noundef %127, ptr noundef %130, ptr noundef %131, i32 noundef %134, ptr noundef %135, i32 noundef %136, i32 noundef %139, i1 noundef zeroext %143)
  br label %144

144:                                              ; preds = %111, %60
  %145 = getelementptr inbounds %class.anon, ptr %10, i32 0, i32 23
  %146 = load ptr, ptr %145, align 8
  %147 = load ptr, ptr %146, align 8
  %148 = icmp ne ptr %147, null
  br i1 %148, label %149, label %168

149:                                              ; preds = %144
  %150 = getelementptr inbounds %class.anon, ptr %10, i32 0, i32 23
  %151 = load ptr, ptr %150, align 8
  %152 = load ptr, ptr %151, align 8
  %153 = load ptr, ptr %8, align 8
  %154 = load ptr, ptr %8, align 8
  %155 = getelementptr inbounds %class.anon, ptr %10, i32 0, i32 4
  %156 = load ptr, ptr %155, align 8
  %157 = load i64, ptr %156, align 8
  %158 = trunc i64 %157 to i32
  %159 = getelementptr inbounds %class.anon, ptr %10, i32 0, i32 4
  %160 = load ptr, ptr %159, align 8
  %161 = load i64, ptr %160, align 8
  %162 = load i32, ptr %6, align 4
  %163 = load i32, ptr %6, align 4
  %164 = add nsw i32 %163, 1
  %165 = load ptr, ptr %152, align 8
  %166 = getelementptr inbounds ptr, ptr %165, i64 33
  %167 = load ptr, ptr %166, align 8
  call void %167(ptr noundef nonnull align 8 dereferenceable(100) %152, ptr noundef %153, ptr noundef %154, i32 noundef %158, i64 noundef %161, i32 noundef %162, i32 noundef %164)
  br label %168

168:                                              ; preds = %149, %144
  br label %169

169:                                              ; preds = %168
  %170 = load i32, ptr %5, align 4
  %171 = add nsw i32 %170, 1
  store i32 %171, ptr %5, align 4
  br label %14, !llvm.loop !12

172:                                              ; preds = %14
  ret void
}

; Function Attrs: mustprogress nounwind uwtable
define linkonce_odr hidden noundef ptr @_ZNKSt9_Any_data9_M_accessEv(ptr noundef nonnull align 8 dereferenceable(16) %0) #5 comdat align 2 {
  %2 = alloca ptr, align 8
  store ptr %0, ptr %2, align 8
  %3 = load ptr, ptr %2, align 8
  %4 = getelementptr inbounds [16 x i8], ptr %3, i64 0, i64 0
  ret ptr %4
}

; Function Attrs: mustprogress uwtable
define internal void @"_ZSt13__invoke_implIvRZN2cv3dnn12runDepthwiseERKNS0_11_InputArrayERKNS0_12_OutputArrayERKNS0_3PtrINS1_8FastConvEEEPNS1_14dnn4_v2024052115ActivationLayerERKSt6vectorIfSaIfEEbE3$_0JRKNS0_5RangeEEET_St14__invoke_otherOT0_DpOT1_"(ptr noundef nonnull align 8 dereferenceable(192) %0, ptr noundef nonnull align 4 dereferenceable(8) %1) #4 {
  %3 = alloca ptr, align 8
  %4 = alloca ptr, align 8
  store ptr %0, ptr %3, align 8
  store ptr %1, ptr %4, align 8
  %5 = load ptr, ptr %3, align 8
  %6 = load ptr, ptr %4, align 8
  call void @"_ZZN2cv3dnn12runDepthwiseERKNS_11_InputArrayERKNS_12_OutputArrayERKNS_3PtrINS0_8FastConvEEEPNS0_14dnn4_v2024052115ActivationLayerERKSt6vectorIfSaIfEEbENK3$_0clERKNS_5RangeE"(ptr noundef nonnull align 8 dereferenceable(192) %5, ptr noundef nonnull align 4 dereferenceable(8) %6)
  ret void
}

; Function Attrs: mustprogress nounwind uwtable
define internal noundef nonnull align 8 dereferenceable(8) ptr @"_ZNKSt9_Any_data9_M_accessIPZN2cv3dnn12runDepthwiseERKNS1_11_InputArrayERKNS1_12_OutputArrayERKNS1_3PtrINS2_8FastConvEEEPNS2_14dnn4_v2024052115ActivationLayerERKSt6vectorIfSaIfEEbE3$_0EERKT_v"(ptr noundef nonnull align 8 dereferenceable(16) %0) #5 align 2 {
  %2 = alloca ptr, align 8
  store ptr %0, ptr %2, align 8
  %3 = load ptr, ptr %2, align 8
  %4 = call noundef ptr @_ZNKSt9_Any_data9_M_accessEv(ptr noundef nonnull align 8 dereferenceable(16) %3) #3
  ret ptr %4
}

; Function Attrs: mustprogress uwtable
define internal void @"_ZSt10__invoke_rIvRZN2cv3dnn12runDepthwiseERKNS0_11_InputArrayERKNS0_12_OutputArrayERKNS0_3PtrINS1_8FastConvEEEPNS1_14dnn4_v2024052115ActivationLayerERKSt6vectorIfSaIfEEbE3$_0JRKNS0_5RangeEEENSt9enable_ifIXsr6__and_ISt7is_voidIT_ESt14__is_invocableIT0_JDpT1_EEEE5valueESS_E4typeEOSV_DpOSW_"(ptr noundef nonnull align 8 dereferenceable(192) %0, ptr noundef nonnull align 4 dereferenceable(8) %1) #4 {
  %3 = alloca ptr, align 8
  %4 = alloca ptr, align 8
  store ptr %0, ptr %3, align 8
  store ptr %1, ptr %4, align 8
  %5 = load ptr, ptr %3, align 8
  %6 = load ptr, ptr %4, align 8
  call void @"_ZSt13__invoke_implIvRZN2cv3dnn12runDepthwiseERKNS0_11_InputArrayERKNS0_12_OutputArrayERKNS0_3PtrINS1_8FastConvEEEPNS1_14dnn4_v2024052115ActivationLayerERKSt6vectorIfSaIfEEbE3$_0JRKNS0_5RangeEEET_St14__invoke_otherOT0_DpOT1_"(ptr noundef nonnull align 8 dereferenceable(192) %5, ptr noundef nonnull align 4 dereferenceable(8) %6)
  ret void
}

; Function Attrs: mustprogress nounwind uwtable
define internal noundef ptr @"_ZNSt14_Function_base13_Base_managerIZN2cv3dnn12runDepthwiseERKNS1_11_InputArrayERKNS1_12_OutputArrayERKNS1_3PtrINS2_8FastConvEEEPNS2_14dnn4_v2024052115ActivationLayerERKSt6vectorIfSaIfEEbE3$_0E14_M_get_pointerERKSt9_Any_data"(ptr noundef nonnull align 8 dereferenceable(16) %0) #5 align 2 {
  %2 = alloca ptr, align 8
  store ptr %0, ptr %2, align 8
  %3 = load ptr, ptr %2, align 8
  %4 = call noundef nonnull align 8 dereferenceable(8) ptr @"_ZNKSt9_Any_data9_M_accessIPZN2cv3dnn12runDepthwiseERKNS1_11_InputArrayERKNS1_12_OutputArrayERKNS1_3PtrINS2_8FastConvEEEPNS2_14dnn4_v2024052115ActivationLayerERKSt6vectorIfSaIfEEbE3$_0EERKT_v"(ptr noundef nonnull align 8 dereferenceable(16) %3) #3
  %5 = load ptr, ptr %4, align 8
  ret ptr %5
}

; Function Attrs: mustprogress uwtable
define internal void @"_ZNSt17_Function_handlerIFvRKN2cv5RangeEEZNS0_3dnn12runDepthwiseERKNS0_11_InputArrayERKNS0_12_OutputArrayERKNS0_3PtrINS5_8FastConvEEEPNS5_14dnn4_v2024052115ActivationLayerERKSt6vectorIfSaIfEEbE3$_0E9_M_invokeERKSt9_Any_dataS3_"(ptr noundef nonnull align 8 dereferenceable(16) %0, ptr noundef nonnull align 4 dereferenceable(8) %1) #4 align 2 {
  %3 = alloca ptr, align 8
  %4 = alloca ptr, align 8
  store ptr %0, ptr %3, align 8
  store ptr %1, ptr %4, align 8
  %5 = load ptr, ptr %3, align 8
  %6 = call noundef ptr @"_ZNSt14_Function_base13_Base_managerIZN2cv3dnn12runDepthwiseERKNS1_11_InputArrayERKNS1_12_OutputArrayERKNS1_3PtrINS2_8FastConvEEEPNS2_14dnn4_v2024052115ActivationLayerERKSt6vectorIfSaIfEEbE3$_0E14_M_get_pointerERKSt9_Any_data"(ptr noundef nonnull align 8 dereferenceable(16) %5) #3
  %7 = load ptr, ptr %4, align 8
  call void @"_ZSt10__invoke_rIvRZN2cv3dnn12runDepthwiseERKNS0_11_InputArrayERKNS0_12_OutputArrayERKNS0_3PtrINS1_8FastConvEEEPNS1_14dnn4_v2024052115ActivationLayerERKSt6vectorIfSaIfEEbE3$_0JRKNS0_5RangeEEENSt9enable_ifIXsr6__and_ISt7is_voidIT_ESt14__is_invocableIT0_JDpT1_EEEE5valueESS_E4typeEOSV_DpOSW_"(ptr noundef nonnull align 8 dereferenceable(192) %6, ptr noundef nonnull align 4 dereferenceable(8) %7)
  ret void
}