; Function Attrs: mustprogress uwtable
define internal void @"_ZNSt17_Function_handlerIFvRKN2cv5RangeEEZNS0_3dnn12runDepthwiseERKNS0_11_InputArrayERKNS0_12_OutputArrayERKNS0_3PtrINS5_8FastConvEEEPNS5_14dnn4_v2024052115ActivationLayerERKSt6vectorIfSaIfEEbE3$_0E9_M_invokeERKSt9_Any_dataS3_"(ptr nocapture noundef nonnull readonly align 8 dereferenceable(16) %0, ptr nocapture noundef nonnull readonly align 4 dereferenceable(8) %1) #3 align 2 {
  %.val = load ptr, ptr %0, align 8
  %3 = load i32, ptr %1, align 4
  %4 = getelementptr inbounds i8, ptr %1, i64 4
  %5 = load i32, ptr %4, align 4
  %6 = icmp slt i32 %3, %5
  br i1 %6, label %.lr.ph.i.i.i, label %"_ZSt10__invoke_rIvRZN2cv3dnn12runDepthwiseERKNS0_11_InputArrayERKNS0_12_OutputArrayERKNS0_3PtrINS1_8FastConvEEEPNS1_14dnn4_v2024052115ActivationLayerERKSt6vectorIfSaIfEEbE3$_0JRKNS0_5RangeEEENSt9enable_ifIXsr6__and_ISt7is_voidIT_ESt14__is_invocableIT0_JDpT1_EEEE5valueESS_E4typeEOSV_DpOSW_.exit"

.lr.ph.i.i.i:                                     ; preds = %2
  %7 = getelementptr inbounds i8, ptr %.val, i64 8
  %8 = getelementptr inbounds i8, ptr %.val, i64 16
  %9 = getelementptr inbounds i8, ptr %.val, i64 24
  %10 = getelementptr inbounds i8, ptr %.val, i64 32
  %11 = getelementptr inbounds i8, ptr %.val, i64 40
  %12 = getelementptr inbounds i8, ptr %.val, i64 48
  %13 = getelementptr inbounds i8, ptr %.val, i64 56
  %14 = getelementptr inbounds i8, ptr %.val, i64 72
  %15 = getelementptr inbounds i8, ptr %.val, i64 88
  %16 = getelementptr inbounds i8, ptr %.val, i64 104
  %17 = getelementptr inbounds i8, ptr %.val, i64 120
  %18 = getelementptr inbounds i8, ptr %.val, i64 128
  %19 = getelementptr inbounds i8, ptr %.val, i64 136
  %20 = getelementptr inbounds i8, ptr %.val, i64 152
  %21 = getelementptr inbounds i8, ptr %.val, i64 168
  %22 = getelementptr inbounds i8, ptr %.val, i64 176
  %23 = getelementptr inbounds i8, ptr %.val, i64 64
  %24 = getelementptr inbounds i8, ptr %.val, i64 80
  %25 = getelementptr inbounds i8, ptr %.val, i64 96
  %26 = getelementptr inbounds i8, ptr %.val, i64 112
  %27 = getelementptr inbounds i8, ptr %.val, i64 144
  %28 = getelementptr inbounds i8, ptr %.val, i64 160
  %29 = getelementptr inbounds i8, ptr %.val, i64 184
  %30 = sext i32 %3 to i64
  br label %31

31:                                               ; preds = %121, %.lr.ph.i.i.i
  %indvars.iv.i.i.i = phi i64 [ %30, %.lr.ph.i.i.i ], [ %indvars.iv.next.i.i.i, %121 ]
  %32 = load ptr, ptr %.val, align 8
  %33 = load i32, ptr %32, align 4
  %34 = trunc nsw i64 %indvars.iv.i.i.i to i32
  %35 = srem i32 %34, %33
  %36 = load ptr, ptr %7, align 8
  %37 = load ptr, ptr %36, align 8
  %38 = load ptr, ptr %8, align 8
  %39 = load i64, ptr %38, align 8
  %40 = mul i64 %39, %indvars.iv.i.i.i
  %41 = getelementptr inbounds float, ptr %37, i64 %40
  %42 = load ptr, ptr %9, align 8
  %43 = load ptr, ptr %42, align 8
  %44 = load ptr, ptr %10, align 8
  %45 = load i64, ptr %44, align 8
  %46 = mul i64 %45, %indvars.iv.i.i.i
  %47 = getelementptr inbounds float, ptr %43, i64 %46
  %48 = load ptr, ptr %11, align 8
  %49 = load ptr, ptr %48, align 8
  %50 = load ptr, ptr %12, align 8
  %51 = load i32, ptr %50, align 4
  %52 = mul nsw i32 %51, %35
  %53 = sext i32 %52 to i64
  %54 = getelementptr inbounds float, ptr %49, i64 %53
  %55 = load ptr, ptr %13, align 8
  %56 = load i32, ptr %55, align 4
  %57 = icmp eq i32 %56, 1
  br i1 %57, label %58, label %90

58:                                               ; preds = %31
  %59 = load ptr, ptr %23, align 8
  %60 = load i32, ptr %59, align 4
  %61 = load ptr, ptr %14, align 8
  %62 = load i32, ptr %61, align 4
  %63 = load ptr, ptr %24, align 8
  %64 = load i32, ptr %63, align 4
  %65 = load ptr, ptr %15, align 8
  %66 = load i32, ptr %65, align 4
  %67 = load ptr, ptr %25, align 8
  %68 = load i32, ptr %67, align 4
  %69 = load ptr, ptr %16, align 8
  %70 = load i32, ptr %69, align 4
  %71 = load ptr, ptr %26, align 8
  %72 = load i32, ptr %71, align 4
  %73 = load ptr, ptr %17, align 8
  %74 = load i32, ptr %73, align 4
  %75 = load ptr, ptr %18, align 8
  %76 = load ptr, ptr %75, align 8
  %77 = load ptr, ptr %19, align 8
  %78 = load ptr, ptr %77, align 8
  %79 = load ptr, ptr %27, align 8
  %80 = load i32, ptr %79, align 4
  %81 = load ptr, ptr %20, align 8
  %82 = load i32, ptr %81, align 4
  %83 = load ptr, ptr %28, align 8
  %84 = load i32, ptr %83, align 4
  %85 = load ptr, ptr %21, align 8
  %86 = load i32, ptr %85, align 4
  %87 = load ptr, ptr %22, align 8
  %88 = load i8, ptr %87, align 1
  %89 = trunc i8 %88 to i1
  tail call void @_ZN2cv3dnn20depthWiseBlockConv2DEPKfiiiiiiiiS2_S2_S2_iiPfiiib(ptr noundef %54, i32 noundef %60, i32 noundef %62, i32 noundef %64, i32 noundef %66, i32 noundef %68, i32 noundef %70, i32 noundef %72, i32 noundef %74, ptr noundef %76, ptr noundef %78, ptr noundef %41, i32 noundef %80, i32 noundef %82, ptr noundef %47, i32 noundef %35, i32 noundef %84, i32 noundef %86, i1 noundef zeroext %89)
  br label %110

90:                                               ; preds = %31
  %91 = load ptr, ptr %14, align 8
  %92 = load i32, ptr %91, align 4
  %93 = load ptr, ptr %15, align 8
  %94 = load i32, ptr %93, align 4
  %95 = load ptr, ptr %16, align 8
  %96 = load i32, ptr %95, align 4
  %97 = load ptr, ptr %17, align 8
  %98 = load i32, ptr %97, align 4
  %99 = load ptr, ptr %18, align 8
  %100 = load ptr, ptr %99, align 8
  %101 = load ptr, ptr %19, align 8
  %102 = load ptr, ptr %101, align 8
  %103 = load ptr, ptr %20, align 8
  %104 = load i32, ptr %103, align 4
  %105 = load ptr, ptr %21, align 8
  %106 = load i32, ptr %105, align 4
  %107 = load ptr, ptr %22, align 8
  %108 = load i8, ptr %107, align 1
  %109 = trunc i8 %108 to i1
  tail call void @_ZN2cv3dnn20depthWiseBlockConv1DEPKfiiiiS2_S2_S2_iPfiib(ptr noundef %54, i32 noundef %92, i32 noundef %94, i32 noundef %96, i32 noundef %98, ptr noundef %100, ptr noundef %102, ptr noundef %41, i32 noundef %104, ptr noundef %47, i32 noundef %35, i32 noundef %106, i1 noundef zeroext %109)
  br label %110

110:                                              ; preds = %90, %58
  %111 = load ptr, ptr %29, align 8
  %112 = load ptr, ptr %111, align 8
  %.not.i.i.i = icmp eq ptr %112, null
  br i1 %.not.i.i.i, label %121, label %113

113:                                              ; preds = %110
  %114 = load ptr, ptr %10, align 8
  %115 = load i64, ptr %114, align 8
  %116 = trunc i64 %115 to i32
  %117 = add nsw i32 %35, 1
  %118 = load ptr, ptr %112, align 8
  %119 = getelementptr inbounds i8, ptr %118, i64 264
  %120 = load ptr, ptr %119, align 8
  tail call void %120(ptr noundef nonnull align 8 dereferenceable(100) %112, ptr noundef %47, ptr noundef %47, i32 noundef %116, i64 noundef %115, i32 noundef %35, i32 noundef %117)
  br label %121

121:                                              ; preds = %113, %110
  %indvars.iv.next.i.i.i = add nsw i64 %indvars.iv.i.i.i, 1
  %122 = load i32, ptr %4, align 4
  %123 = sext i32 %122 to i64
  %124 = icmp slt i64 %indvars.iv.next.i.i.i, %123
  br i1 %124, label %31, label %"_ZSt10__invoke_rIvRZN2cv3dnn12runDepthwiseERKNS0_11_InputArrayERKNS0_12_OutputArrayERKNS0_3PtrINS1_8FastConvEEEPNS1_14dnn4_v2024052115ActivationLayerERKSt6vectorIfSaIfEEbE3$_0JRKNS0_5RangeEEENSt9enable_ifIXsr6__and_ISt7is_voidIT_ESt14__is_invocableIT0_JDpT1_EEEE5valueESS_E4typeEOSV_DpOSW_.exit", !llvm.loop !17

"_ZSt10__invoke_rIvRZN2cv3dnn12runDepthwiseERKNS0_11_InputArrayERKNS0_12_OutputArrayERKNS0_3PtrINS1_8FastConvEEEPNS1_14dnn4_v2024052115ActivationLayerERKSt6vectorIfSaIfEEbE3$_0JRKNS0_5RangeEEENSt9enable_ifIXsr6__and_ISt7is_voidIT_ESt14__is_invocableIT0_JDpT1_EEEE5valueESS_E4typeEOSV_DpOSW_.exit": ; preds = %121, %2
  ret void
}